; ModuleID = 'source-C-CXX/52/833.c'
source_filename = "source-C-CXX/52/833.c"
target datalayout = "e-m:e-p270:32:32-p271:32:32-p272:64:64-i64:64-f80:128-n8:16:32:64-S128"
target triple = "x86_64-pc-linux-gnu"

@.str = private unnamed_addr constant [3 x i8] c"%d\00", align 1
@.str.1 = private unnamed_addr constant [4 x i8] c"%d,\00", align 1

; Function Attrs: nofree nounwind sspstrong uwtable
define dso_local i32 @main() local_unnamed_addr #0 {
  %1 = alloca i32, align 4
  %2 = alloca [100 x i32], align 16
  %3 = alloca [100 x i32], align 16
  %4 = bitcast i32* %1 to i8*
  call void @llvm.lifetime.start.p0i8(i64 4, i8* nonnull %4) #3
  %5 = bitcast [100 x i32]* %2 to i8*
  call void @llvm.lifetime.start.p0i8(i64 400, i8* nonnull %5) #3
  %6 = bitcast [100 x i32]* %3 to i8*
  call void @llvm.lifetime.start.p0i8(i64 400, i8* nonnull %6) #3
  %7 = call i32 (i8*, ...) @__isoc99_scanf(i8* getelementptr inbounds ([3 x i8], [3 x i8]* @.str, i64 0, i64 0), i32* nonnull %1)
  %8 = load i32, i32* %1, align 4, !tbaa !5
  %9 = icmp sgt i32 %8, 0
  br i1 %9, label %10, label %65

10:                                               ; preds = %0, %10
  %11 = phi i64 [ %14, %10 ], [ 0, %0 ]
  %12 = getelementptr inbounds [100 x i32], [100 x i32]* %2, i64 0, i64 %11
  %13 = call i32 (i8*, ...) @__isoc99_scanf(i8* getelementptr inbounds ([3 x i8], [3 x i8]* @.str, i64 0, i64 0), i32* nonnull %12)
  %14 = add nuw nsw i64 %11, 1
  %15 = load i32, i32* %1, align 4, !tbaa !5
  %16 = sext i32 %15 to i64
  %17 = icmp slt i64 %14, %16
  br i1 %17, label %10, label %18, !llvm.loop !9

18:                                               ; preds = %10
  %19 = getelementptr inbounds [100 x i32], [100 x i32]* %2, i64 0, i64 0
  %20 = load i32, i32* %19, align 16, !tbaa !5
  %21 = getelementptr inbounds [100 x i32], [100 x i32]* %3, i64 0, i64 0
  store i32 %20, i32* %21, align 16, !tbaa !5
  %22 = icmp sgt i32 %15, 1
  br i1 %22, label %23, label %65

23:                                               ; preds = %18
  %24 = zext i32 %15 to i64
  br label %25

25:                                               ; preds = %23, %54
  %26 = phi i64 [ 1, %23 ], [ %56, %54 ]
  %27 = phi i32 [ 1, %23 ], [ %55, %54 ]
  %28 = getelementptr inbounds [100 x i32], [100 x i32]* %2, i64 0, i64 %26
  %29 = load i32, i32* %28, align 4, !tbaa !5
  %30 = trunc i64 %26 to i32
  br label %36

31:                                               ; preds = %54
  %32 = add i32 %55, -1
  %33 = icmp sgt i32 %55, 1
  br i1 %33, label %34, label %65

34:                                               ; preds = %31
  %35 = zext i32 %32 to i64
  br label %58

36:                                               ; preds = %25, %42
  %37 = phi i64 [ 0, %25 ], [ %44, %42 ]
  %38 = phi i32 [ 0, %25 ], [ %43, %42 ]
  %39 = getelementptr inbounds [100 x i32], [100 x i32]* %2, i64 0, i64 %37
  %40 = load i32, i32* %39, align 4, !tbaa !5
  %41 = icmp eq i32 %29, %40
  br i1 %41, label %46, label %42

42:                                               ; preds = %36
  %43 = add nuw nsw i32 %38, 1
  %44 = add nuw nsw i64 %37, 1
  %45 = icmp eq i64 %44, %26
  br i1 %45, label %46, label %36, !llvm.loop !11

46:                                               ; preds = %36, %42
  %47 = phi i32 [ %38, %36 ], [ %30, %42 ]
  %48 = zext i32 %47 to i64
  %49 = icmp eq i64 %26, %48
  br i1 %49, label %50, label %54

50:                                               ; preds = %46
  %51 = sext i32 %27 to i64
  %52 = getelementptr inbounds [100 x i32], [100 x i32]* %3, i64 0, i64 %51
  store i32 %29, i32* %52, align 4, !tbaa !5
  %53 = add nsw i32 %27, 1
  br label %54

54:                                               ; preds = %46, %50
  %55 = phi i32 [ %53, %50 ], [ %27, %46 ]
  %56 = add nuw nsw i64 %26, 1
  %57 = icmp eq i64 %56, %24
  br i1 %57, label %31, label %25, !llvm.loop !12

58:                                               ; preds = %34, %58
  %59 = phi i64 [ 0, %34 ], [ %63, %58 ]
  %60 = getelementptr inbounds [100 x i32], [100 x i32]* %3, i64 0, i64 %59
  %61 = load i32, i32* %60, align 4, !tbaa !5
  %62 = call i32 (i8*, ...) @printf(i8* nonnull dereferenceable(1) getelementptr inbounds ([4 x i8], [4 x i8]* @.str.1, i64 0, i64 0), i32 %61)
  %63 = add nuw nsw i64 %59, 1
  %64 = icmp eq i64 %63, %35
  br i1 %64, label %65, label %58, !llvm.loop !13

65:                                               ; preds = %58, %0, %18, %31
  %66 = phi i32 [ %32, %31 ], [ 0, %18 ], [ 0, %0 ], [ %32, %58 ]
  %67 = sext i32 %66 to i64
  %68 = getelementptr inbounds [100 x i32], [100 x i32]* %3, i64 0, i64 %67
  %69 = load i32, i32* %68, align 4, !tbaa !5
  %70 = call i32 (i8*, ...) @printf(i8* nonnull dereferenceable(1) getelementptr inbounds ([3 x i8], [3 x i8]* @.str, i64 0, i64 0), i32 %69)
  call void @llvm.lifetime.end.p0i8(i64 400, i8* nonnull %6) #3
  call void @llvm.lifetime.end.p0i8(i64 400, i8* nonnull %5) #3
  call void @llvm.lifetime.end.p0i8(i64 4, i8* nonnull %4) #3
  ret i32 0
}

; Function Attrs: argmemonly mustprogress nofree nosync nounwind willreturn
declare void @llvm.lifetime.start.p0i8(i64 immarg, i8* nocapture) #1

; Function Attrs: nofree nounwind
declare noundef i32 @__isoc99_scanf(i8* nocapture noundef readonly, ...) local_unnamed_addr #2

; Function Attrs: nofree nounwind
declare noundef i32 @printf(i8* nocapture noundef readonly, ...) local_unnamed_addr #2

; Function Attrs: argmemonly mustprogress nofree nosync nounwind willreturn
declare void @llvm.lifetime.end.p0i8(i64 immarg, i8* nocapture) #1


!llvm.module.flags = !{!0, !1, !2, !3}
!llvm.ident = !{!4}

!0 = !{i32 1, !"wchar_size", i32 4}
!1 = !{i32 7, !"PIC Level", i32 2}
!2 = !{i32 7, !"PIE Level", i32 2}
!3 = !{i32 7, !"uwtable", i32 1}
!4 = !{!"clang version 13.0.0"}
!5 = !{!6, !6, i64 0}
!6 = !{!"int", !7, i64 0}
!7 = !{!"omnipotent char", !8, i64 0}
!8 = !{!"Simple C/C++ TBAA"}
!9 = distinct !{!9, !10}
!10 = !{!"llvm.loop.mustprogress"}
!11 = distinct !{!11, !10}
!12 = distinct !{!12, !10}
!13 = distinct !{!13, !10}
